(dp0
Vengine
p1
Vxelatex
p2
sVpackages
p3
c__builtin__
set
p4
((lp5
tp6
Rp7
sVfiles_with_guttermarks
p8
g4
((lp9
V/Users/RK/Git/scuthesis/readme/chapters/./chap01.tex
p10
aV/Users/RK/Git/scuthesis/readme/chapters/chap01.tex
p11
aS'chap01.tex'
p12
atp13
Rp14
sVsynctex
p15
I01
s.