(dp0
Vengine
p1
Vxelatex
p2
sVpackages
p3
c__builtin__
set
p4
((lp5
Vscuthesis
p6
atp7
Rp8
sVfiles_with_guttermarks
p9
g4
((lp10
S'README.tex'
p11
aV/Users/RK/Git/scuthesis/readme/chapters/chap01.tex
p12
aV/Users/RK/Git/scuthesis/readme/./README.tex
p13
aV/Users/RK/Git/scuthesis/readme/chapters/prologue.tex
p14
aV/Users/RK/Git/scuthesis/readme/./chapters/chap03.tex
p15
aV/Users/RK/Git/scuthesis/readme/chapters/chap03.tex
p16
atp17
Rp18
sVsynctex
p19
I01
s.